; Function Attrs: mustprogress uwtable
define void @_ZN6casadi2MX4pinvERKS0_RKNSt7__cxx1112basic_stringIcSt11char_traitsIcESaIcEEERKSt3mapIS8_NS_11GenericTypeESt4lessIS8_ESaISt4pairIS9_SC_EEE(ptr dead_on_unwind noalias writable sret(%"class.casadi::MX") align 8 %0, ptr noundef nonnull align 8 dereferenceable(8) %1, ptr noundef nonnull align 8 dereferenceable(32) %2, ptr noundef nonnull align 8 dereferenceable(48) %3) local_unnamed_addr #3 align 2 personality ptr @__gxx_personality_v0 {
  %5 = alloca %"class.casadi::MX", align 8
  %6 = alloca %"class.casadi::MX", align 8
  %7 = alloca %"class.casadi::MX", align 8
  %8 = alloca %"class.casadi::MX", align 8
  %9 = alloca %"class.casadi::MX", align 8
  %10 = alloca %"class.casadi::MX", align 8
  %11 = tail call noundef ptr @_ZNK6casadi12SharedObjectptEv(ptr noundef nonnull align 8 dereferenceable(8) %1)
  %12 = getelementptr inbounds i8, ptr %11, i64 56
  %13 = tail call noundef i64 @_ZNK6casadi8Sparsity5size1Ev(ptr noundef nonnull align 8 dereferenceable(8) %12)
  %14 = tail call noundef ptr @_ZNK6casadi12SharedObjectptEv(ptr noundef nonnull align 8 dereferenceable(8) %1)
  %15 = getelementptr inbounds i8, ptr %14, i64 56
  %16 = tail call noundef i64 @_ZNK6casadi8Sparsity5size2Ev(ptr noundef nonnull align 8 dereferenceable(8) %15)
  %.not = icmp slt i64 %13, %16
  %17 = tail call noundef ptr @_ZNK6casadi12SharedObjectptEv(ptr noundef nonnull align 8 dereferenceable(8) %1), !noalias !851
  %18 = load ptr, ptr %17, align 8, !noalias !851
  %19 = getelementptr inbounds i8, ptr %18, i64 512
  %20 = load ptr, ptr %19, align 8, !noalias !851
  br i1 %.not, label %34, label %21

21:                                               ; preds = %4
  call void %20(ptr dead_on_unwind nonnull writable sret(%"class.casadi::MX") align 8 %6, ptr noundef nonnull align 8 dereferenceable(64) %17)
  invoke void @_ZN6casadi2MX6mtimesERKS0_S2_(ptr dead_on_unwind nonnull writable sret(%"class.casadi::MX") align 8 %5, ptr noundef nonnull align 8 dereferenceable(8) %6, ptr noundef nonnull align 8 dereferenceable(8) %1)
          to label %22 unwind label %27

22:                                               ; preds = %21
  %23 = invoke noundef ptr @_ZNK6casadi12SharedObjectptEv(ptr noundef nonnull align 8 dereferenceable(8) %1)
          to label %.noexc unwind label %29

.noexc:                                           ; preds = %22
  %24 = load ptr, ptr %23, align 8, !noalias !852
  %25 = getelementptr inbounds i8, ptr %24, i64 512
  %26 = load ptr, ptr %25, align 8, !noalias !852
  invoke void %26(ptr dead_on_unwind nonnull writable sret(%"class.casadi::MX") align 8 %7, ptr noundef nonnull align 8 dereferenceable(64) %23)
          to label %_ZNK6casadi2MX1TEv.exit unwind label %29

_ZNK6casadi2MX1TEv.exit:                          ; preds = %.noexc
  invoke void @_ZN6casadi2MX5solveERKS0_S2_RKNSt7__cxx1112basic_stringIcSt11char_traitsIcESaIcEEERKSt3mapIS8_NS_11GenericTypeESt4lessIS8_ESaISt4pairIS9_SC_EEE(ptr dead_on_unwind writable sret(%"class.casadi::MX") align 8 %0, ptr noundef nonnull align 8 dereferenceable(8) %5, ptr noundef nonnull align 8 dereferenceable(8) %7, ptr noundef nonnull align 8 dereferenceable(32) %2, ptr noundef nonnull align 8 dereferenceable(48) %3)
          to label %_ZNK6casadi2MX1TEv.exit27 unwind label %31

27:                                               ; preds = %21
  %28 = landingpad { ptr, i32 }
          cleanup
  br label %48

29:                                               ; preds = %.noexc, %22
  %30 = landingpad { ptr, i32 }
          cleanup
  br label %33

31:                                               ; preds = %_ZNK6casadi2MX1TEv.exit
  %32 = landingpad { ptr, i32 }
          cleanup
  call void @_ZN6casadi2MXD1Ev(ptr noundef nonnull align 8 dereferenceable(8) %7) #27
  br label %33

33:                                               ; preds = %31, %29
  %.pn20 = phi { ptr, i32 } [ %32, %31 ], [ %30, %29 ]
  call void @_ZN6casadi2MXD1Ev(ptr noundef nonnull align 8 dereferenceable(8) %5) #27
  br label %48

34:                                               ; preds = %4
  call void %20(ptr dead_on_unwind nonnull writable sret(%"class.casadi::MX") align 8 %10, ptr noundef nonnull align 8 dereferenceable(64) %17)
  invoke void @_ZN6casadi2MX6mtimesERKS0_S2_(ptr dead_on_unwind nonnull writable sret(%"class.casadi::MX") align 8 %9, ptr noundef nonnull align 8 dereferenceable(8) %1, ptr noundef nonnull align 8 dereferenceable(8) %10)
          to label %35 unwind label %41

35:                                               ; preds = %34
  invoke void @_ZN6casadi2MX5solveERKS0_S2_RKNSt7__cxx1112basic_stringIcSt11char_traitsIcESaIcEEERKSt3mapIS8_NS_11GenericTypeESt4lessIS8_ESaISt4pairIS9_SC_EEE(ptr dead_on_unwind nonnull writable sret(%"class.casadi::MX") align 8 %8, ptr noundef nonnull align 8 dereferenceable(8) %9, ptr noundef nonnull align 8 dereferenceable(8) %1, ptr noundef nonnull align 8 dereferenceable(32) %2, ptr noundef nonnull align 8 dereferenceable(48) %3)
          to label %36 unwind label %43

36:                                               ; preds = %35
  %37 = invoke noundef ptr @_ZNK6casadi12SharedObjectptEv(ptr noundef nonnull align 8 dereferenceable(8) %8)
          to label %.noexc25 unwind label %45

.noexc25:                                         ; preds = %36
  %38 = load ptr, ptr %37, align 8, !noalias !855
  %39 = getelementptr inbounds i8, ptr %38, i64 512
  %40 = load ptr, ptr %39, align 8, !noalias !855
  invoke void %40(ptr dead_on_unwind writable sret(%"class.casadi::MX") align 8 %0, ptr noundef nonnull align 8 dereferenceable(64) %37)
          to label %_ZNK6casadi2MX1TEv.exit27 unwind label %45

41:                                               ; preds = %34
  %42 = landingpad { ptr, i32 }
          cleanup
  br label %48

43:                                               ; preds = %35
  %44 = landingpad { ptr, i32 }
          cleanup
  br label %47

45:                                               ; preds = %.noexc25, %36
  %46 = landingpad { ptr, i32 }
          cleanup
  call void @_ZN6casadi2MXD1Ev(ptr noundef nonnull align 8 dereferenceable(8) %8) #27
  br label %47

47:                                               ; preds = %45, %43
  %.pn = phi { ptr, i32 } [ %46, %45 ], [ %44, %43 ]
  call void @_ZN6casadi2MXD1Ev(ptr noundef nonnull align 8 dereferenceable(8) %9) #27
  br label %48

_ZNK6casadi2MX1TEv.exit27:                        ; preds = %.noexc25, %_ZNK6casadi2MX1TEv.exit
  %.sink29 = phi ptr [ %7, %_ZNK6casadi2MX1TEv.exit ], [ %8, %.noexc25 ]
  %.sink28 = phi ptr [ %5, %_ZNK6casadi2MX1TEv.exit ], [ %9, %.noexc25 ]
  %.sink = phi ptr [ %6, %_ZNK6casadi2MX1TEv.exit ], [ %10, %.noexc25 ]
  call void @_ZN6casadi2MXD1Ev(ptr noundef nonnull align 8 dereferenceable(8) %.sink29) #27
  call void @_ZN6casadi2MXD1Ev(ptr noundef nonnull align 8 dereferenceable(8) %.sink28) #27
  call void @_ZN6casadi2MXD1Ev(ptr noundef nonnull align 8 dereferenceable(8) %.sink) #27
  ret void

48:                                               ; preds = %41, %47, %27, %33
  %.sink30 = phi ptr [ %6, %33 ], [ %6, %27 ], [ %10, %47 ], [ %10, %41 ]
  %.pn20.pn.pn = phi { ptr, i32 } [ %.pn20, %33 ], [ %28, %27 ], [ %.pn, %47 ], [ %42, %41 ]
  call void @_ZN6casadi2MXD1Ev(ptr noundef nonnull align 8 dereferenceable(8) %.sink30) #27
  resume { ptr, i32 } %.pn20.pn.pn
}